; Function Attrs: mustprogress nounwind uwtable
define dso_local noundef zeroext i1 @_ZNK4llvm2cl10SubCommandcvbEv(ptr noundef nonnull readnone align 8 dereferenceable(160) %0) local_unnamed_addr #0 align 2 {
  %2 = load atomic i64, ptr @_ZL12GlobalParser acquire, align 8
  %.not.i.i = icmp eq i64 %2, 0
  br i1 %.not.i.i, label %3, label %_ZN4llvm13ManagedStaticIN12_GLOBAL__N_117CommandLineParserENS_14object_creatorIS2_EENS_14object_deleterIS2_EEEptEv.exit

3:                                                ; preds = %1
  tail call void @_ZNK4llvm17ManagedStaticBase21RegisterManagedStaticEPFPvvEPFvS1_E(ptr noundef nonnull align 8 dereferenceable(24) @_ZL12GlobalParser, ptr noundef nonnull @_ZN4llvm14object_creatorIN12_GLOBAL__N_117CommandLineParserEE4callEv, ptr noundef nonnull @_ZN4llvm14object_deleterIN12_GLOBAL__N_117CommandLineParserEE4callEPv) #25
  br label %_ZN4llvm13ManagedStaticIN12_GLOBAL__N_117CommandLineParserENS_14object_creatorIS2_EENS_14object_deleterIS2_EEEptEv.exit

_ZN4llvm13ManagedStaticIN12_GLOBAL__N_117CommandLineParserENS_14object_creatorIS2_EENS_14object_deleterIS2_EEEptEv.exit: ; preds = %1, %3
  %4 = load atomic i64, ptr @_ZL12GlobalParser monotonic, align 8
  %.0.i2.i.i = inttoptr i64 %4 to ptr
  %5 = getelementptr i8, ptr %.0.i2.i.i, i64 344
  %.val = load ptr, ptr %5, align 8
  %6 = icmp eq ptr %.val, %0
  ret i1 %6
}